target datalayout = "e-m:e-p270:32:32-p271:32:32-p272:64:64-i64:64-i128:128-f80:128-n8:16:32:64-S128"
target triple = "x86_64-pc-linux-gnu"

%struct._LossyDctEncoder = type { ptr, i64, i64, [3 x ptr], i32, i32, i32, float, ptr, ptr, [64 x float], [64 x i16], [64 x float], [64 x i16] }
%union.imath_half_uif = type { i32 }

; Function Attrs: inlinehint nounwind uwtable
define internal zeroext i16 @imath_float_to_half(float noundef %0) #4 {
  %2 = alloca i16, align 2
  %3 = alloca float, align 4
  %4 = alloca %union.imath_half_uif, align 4
  %5 = alloca i16, align 2
  %6 = alloca i32, align 4
  %7 = alloca i32, align 4
  %8 = alloca i32, align 4
  %9 = alloca i32, align 4
  %10 = alloca i32, align 4
  %11 = alloca i32, align 4
  store float %0, ptr %3, align 4, !tbaa !152
  call void @llvm.lifetime.start.p0(i64 4, ptr %4) #14
  call void @llvm.lifetime.start.p0(i64 2, ptr %5) #14
  call void @llvm.lifetime.start.p0(i64 4, ptr %6) #14
  call void @llvm.lifetime.start.p0(i64 4, ptr %7) #14
  call void @llvm.lifetime.start.p0(i64 4, ptr %8) #14
  call void @llvm.lifetime.start.p0(i64 4, ptr %9) #14
  call void @llvm.lifetime.start.p0(i64 4, ptr %10) #14
  %12 = load float, ptr %3, align 4, !tbaa !152
  store float %12, ptr %4, align 4, !tbaa !109
  %13 = load i32, ptr %4, align 4, !tbaa !109
  %14 = and i32 %13, 2147483647
  store i32 %14, ptr %8, align 4, !tbaa !8
  %15 = load i32, ptr %4, align 4, !tbaa !109
  %16 = lshr i32 %15, 16
  %17 = and i32 %16, 32768
  %18 = trunc i32 %17 to i16
  store i16 %18, ptr %5, align 2, !tbaa !153
  %19 = load i32, ptr %8, align 4, !tbaa !8
  %20 = icmp uge i32 %19, 947912704
  br i1 %20, label %21, label %83

21:                                               ; preds = %1
  %22 = load i32, ptr %8, align 4, !tbaa !8
  %23 = icmp uge i32 %22, 2139095040
  %24 = zext i1 %23 to i32
  %25 = sext i32 %24 to i64
  %26 = call i64 @llvm.expect.i64(i64 %25, i64 0)
  %27 = icmp ne i64 %26, 0
  br i1 %27, label %28, label %54

28:                                               ; preds = %21
  %29 = load i16, ptr %5, align 2, !tbaa !153
  %30 = zext i16 %29 to i32
  %31 = or i32 %30, 31744
  %32 = trunc i32 %31 to i16
  store i16 %32, ptr %5, align 2, !tbaa !153
  %33 = load i32, ptr %8, align 4, !tbaa !8
  %34 = icmp eq i32 %33, 2139095040
  br i1 %34, label %35, label %37

35:                                               ; preds = %28
  %36 = load i16, ptr %5, align 2, !tbaa !153
  store i16 %36, ptr %2, align 2
  store i32 1, ptr %11, align 4
  br label %122

37:                                               ; preds = %28
  %38 = load i32, ptr %8, align 4, !tbaa !8
  %39 = and i32 %38, 8388607
  %40 = lshr i32 %39, 13
  store i32 %40, ptr %7, align 4, !tbaa !8
  %41 = load i16, ptr %5, align 2, !tbaa !153
  %42 = zext i16 %41 to i32
  %43 = load i32, ptr %7, align 4, !tbaa !8
  %44 = trunc i32 %43 to i16
  %45 = zext i16 %44 to i32
  %46 = or i32 %42, %45
  %47 = load i32, ptr %7, align 4, !tbaa !8
  %48 = icmp eq i32 %47, 0
  %49 = zext i1 %48 to i32
  %50 = trunc i32 %49 to i16
  %51 = zext i16 %50 to i32
  %52 = or i32 %46, %51
  %53 = trunc i32 %52 to i16
  store i16 %53, ptr %2, align 2
  store i32 1, ptr %11, align 4
  br label %122

54:                                               ; preds = %21
  %55 = load i32, ptr %8, align 4, !tbaa !8
  %56 = icmp ugt i32 %55, 1199566847
  %57 = zext i1 %56 to i32
  %58 = sext i32 %57 to i64
  %59 = call i64 @llvm.expect.i64(i64 %58, i64 0)
  %60 = icmp ne i64 %59, 0
  br i1 %60, label %61, label %66

61:                                               ; preds = %54
  %62 = load i16, ptr %5, align 2, !tbaa !153
  %63 = zext i16 %62 to i32
  %64 = or i32 %63, 31744
  %65 = trunc i32 %64 to i16
  store i16 %65, ptr %2, align 2
  store i32 1, ptr %11, align 4
  br label %122

66:                                               ; preds = %54
  %67 = load i32, ptr %8, align 4, !tbaa !8
  %68 = sub i32 %67, 939524096
  store i32 %68, ptr %8, align 4, !tbaa !8
  %69 = load i32, ptr %8, align 4, !tbaa !8
  %70 = add i32 %69, 4095
  %71 = load i32, ptr %8, align 4, !tbaa !8
  %72 = lshr i32 %71, 13
  %73 = and i32 %72, 1
  %74 = add i32 %70, %73
  %75 = lshr i32 %74, 13
  store i32 %75, ptr %8, align 4, !tbaa !8
  %76 = load i16, ptr %5, align 2, !tbaa !153
  %77 = zext i16 %76 to i32
  %78 = load i32, ptr %8, align 4, !tbaa !8
  %79 = trunc i32 %78 to i16
  %80 = zext i16 %79 to i32
  %81 = or i32 %77, %80
  %82 = trunc i32 %81 to i16
  store i16 %82, ptr %2, align 2
  store i32 1, ptr %11, align 4
  br label %122

83:                                               ; preds = %1
  %84 = load i32, ptr %8, align 4, !tbaa !8
  %85 = icmp ult i32 %84, 855638017
  br i1 %85, label %86, label %88

86:                                               ; preds = %83
  %87 = load i16, ptr %5, align 2, !tbaa !153
  store i16 %87, ptr %2, align 2
  store i32 1, ptr %11, align 4
  br label %122

88:                                               ; preds = %83
  %89 = load i32, ptr %8, align 4, !tbaa !8
  %90 = lshr i32 %89, 23
  store i32 %90, ptr %6, align 4, !tbaa !8
  %91 = load i32, ptr %6, align 4, !tbaa !8
  %92 = sub i32 126, %91
  store i32 %92, ptr %10, align 4, !tbaa !8
  %93 = load i32, ptr %8, align 4, !tbaa !8
  %94 = and i32 %93, 8388607
  %95 = or i32 8388608, %94
  store i32 %95, ptr %7, align 4, !tbaa !8
  %96 = load i32, ptr %7, align 4, !tbaa !8
  %97 = load i32, ptr %10, align 4, !tbaa !8
  %98 = sub i32 32, %97
  %99 = shl i32 %96, %98
  store i32 %99, ptr %9, align 4, !tbaa !8
  %100 = load i32, ptr %7, align 4, !tbaa !8
  %101 = load i32, ptr %10, align 4, !tbaa !8
  %102 = lshr i32 %100, %101
  %103 = load i16, ptr %5, align 2, !tbaa !153
  %104 = zext i16 %103 to i32
  %105 = or i32 %104, %102
  %106 = trunc i32 %105 to i16
  store i16 %106, ptr %5, align 2, !tbaa !153
  %107 = load i32, ptr %9, align 4, !tbaa !8
  %108 = icmp ugt i32 %107, -2147483648
  br i1 %108, label %117, label %109

109:                                              ; preds = %88
  %110 = load i32, ptr %9, align 4, !tbaa !8
  %111 = icmp eq i32 %110, -2147483648
  br i1 %111, label %112, label %120

112:                                              ; preds = %109
  %113 = load i16, ptr %5, align 2, !tbaa !153
  %114 = zext i16 %113 to i32
  %115 = and i32 %114, 1
  %116 = icmp ne i32 %115, 0
  br i1 %116, label %117, label %120

117:                                              ; preds = %112, %88
  %118 = load i16, ptr %5, align 2, !tbaa !153
  %119 = add i16 %118, 1
  store i16 %119, ptr %5, align 2, !tbaa !153
  br label %120

120:                                              ; preds = %117, %112, %109
  %121 = load i16, ptr %5, align 2, !tbaa !153
  store i16 %121, ptr %2, align 2
  store i32 1, ptr %11, align 4
  br label %122

122:                                              ; preds = %120, %86, %66, %61, %37, %35
  call void @llvm.lifetime.end.p0(i64 4, ptr %10) #14
  call void @llvm.lifetime.end.p0(i64 4, ptr %9) #14
  call void @llvm.lifetime.end.p0(i64 4, ptr %8) #14
  call void @llvm.lifetime.end.p0(i64 4, ptr %7) #14
  call void @llvm.lifetime.end.p0(i64 4, ptr %6) #14
  call void @llvm.lifetime.end.p0(i64 2, ptr %5) #14
  call void @llvm.lifetime.end.p0(i64 4, ptr %4) #14
  %123 = load i16, ptr %2, align 2
  ret i16 %123
}

; Function Attrs: inlinehint nounwind uwtable
define internal zeroext i16 @float_to_half(float noundef %0) #4 {
  %2 = alloca float, align 4
  store float %0, ptr %2, align 4, !tbaa !152
  %3 = load float, ptr %2, align 4, !tbaa !152
  %4 = call zeroext i16 @imath_float_to_half(float noundef %3)
  ret i16 %4
}

; Function Attrs: nounwind uwtable
define internal i32 @LossyDctEncoder_base_construct(ptr noundef %0, float noundef %1, ptr noundef %2, ptr noundef %3, ptr noundef %4, i32 noundef %5, i32 noundef %6) #0 {
  %8 = alloca ptr, align 8
  %9 = alloca float, align 4
  %10 = alloca ptr, align 8
  %11 = alloca ptr, align 8
  %12 = alloca ptr, align 8
  %13 = alloca i32, align 4
  %14 = alloca i32, align 4
  %15 = alloca [64 x i32], align 16
  %16 = alloca i32, align 4
  %17 = alloca [64 x i32], align 16
  %18 = alloca i32, align 4
  %19 = alloca i32, align 4
  store ptr %0, ptr %8, align 8, !tbaa !188
  store float %1, ptr %9, align 4, !tbaa !152
  store ptr %2, ptr %10, align 8, !tbaa !81
  store ptr %3, ptr %11, align 8, !tbaa !81
  store ptr %4, ptr %12, align 8, !tbaa !103
  store i32 %5, ptr %13, align 4, !tbaa !8
  store i32 %6, ptr %14, align 4, !tbaa !8
  call void @llvm.lifetime.start.p0(i64 256, ptr %15) #14
  call void @llvm.memcpy.p0.p0.i64(ptr align 16 %15, ptr align 16 @__const.LossyDctEncoder_base_construct.jpegQuantTableY, i64 256, i1 false)
  call void @llvm.lifetime.start.p0(i64 4, ptr %16) #14
  store i32 10, ptr %16, align 4, !tbaa !8
  call void @llvm.lifetime.start.p0(i64 256, ptr %17) #14
  call void @llvm.memcpy.p0.p0.i64(ptr align 16 %17, ptr align 16 @__const.LossyDctEncoder_base_construct.jpegQuantTableCbCr, i64 256, i1 false)
  call void @llvm.lifetime.start.p0(i64 4, ptr %18) #14
  store i32 17, ptr %18, align 4, !tbaa !8
  %20 = load float, ptr %9, align 4, !tbaa !152
  %21 = load ptr, ptr %8, align 8, !tbaa !188
  %22 = getelementptr inbounds nuw %struct._LossyDctEncoder, ptr %21, i32 0, i32 7
  store float %20, ptr %22, align 4, !tbaa !225
  %23 = load i32, ptr %13, align 4, !tbaa !8
  %24 = load ptr, ptr %8, align 8, !tbaa !188
  %25 = getelementptr inbounds nuw %struct._LossyDctEncoder, ptr %24, i32 0, i32 5
  store i32 %23, ptr %25, align 4, !tbaa !191
  %26 = load i32, ptr %14, align 4, !tbaa !8
  %27 = load ptr, ptr %8, align 8, !tbaa !188
  %28 = getelementptr inbounds nuw %struct._LossyDctEncoder, ptr %27, i32 0, i32 6
  store i32 %26, ptr %28, align 8, !tbaa !192
  %29 = load ptr, ptr %12, align 8, !tbaa !103
  %30 = load ptr, ptr %8, align 8, !tbaa !188
  %31 = getelementptr inbounds nuw %struct._LossyDctEncoder, ptr %30, i32 0, i32 0
  store ptr %29, ptr %31, align 8, !tbaa !201
  %32 = load ptr, ptr %8, align 8, !tbaa !188
  %33 = getelementptr inbounds nuw %struct._LossyDctEncoder, ptr %32, i32 0, i32 1
  store i64 0, ptr %33, align 8, !tbaa !99
  %34 = load ptr, ptr %8, align 8, !tbaa !188
  %35 = getelementptr inbounds nuw %struct._LossyDctEncoder, ptr %34, i32 0, i32 2
  store i64 0, ptr %35, align 8, !tbaa !101
  %36 = load ptr, ptr %10, align 8, !tbaa !81
  %37 = load ptr, ptr %8, align 8, !tbaa !188
  %38 = getelementptr inbounds nuw %struct._LossyDctEncoder, ptr %37, i32 0, i32 8
  store ptr %36, ptr %38, align 8, !tbaa !193
  %39 = load ptr, ptr %11, align 8, !tbaa !81
  %40 = load ptr, ptr %8, align 8, !tbaa !188
  %41 = getelementptr inbounds nuw %struct._LossyDctEncoder, ptr %40, i32 0, i32 9
  store ptr %39, ptr %41, align 8, !tbaa !198
  %42 = load ptr, ptr %8, align 8, !tbaa !188
  %43 = getelementptr inbounds nuw %struct._LossyDctEncoder, ptr %42, i32 0, i32 7
  %44 = load float, ptr %43, align 4, !tbaa !225
  %45 = fcmp olt float %44, 0.000000e+00
  br i1 %45, label %46, label %49

46:                                               ; preds = %7
  %47 = load ptr, ptr %8, align 8, !tbaa !188
  %48 = getelementptr inbounds nuw %struct._LossyDctEncoder, ptr %47, i32 0, i32 7
  store float 0.000000e+00, ptr %48, align 4, !tbaa !225
  br label %49

49:                                               ; preds = %46, %7
  call void @llvm.lifetime.start.p0(i64 4, ptr %19) #14
  store i32 0, ptr %19, align 4, !tbaa !8
  br label %50

50:                                               ; preds = %113, %49
  %51 = load i32, ptr %19, align 4, !tbaa !8
  %52 = icmp slt i32 %51, 64
  br i1 %52, label %54, label %53

53:                                               ; preds = %50
  call void @llvm.lifetime.end.p0(i64 4, ptr %19) #14
  br label %116

54:                                               ; preds = %50
  %55 = load ptr, ptr %8, align 8, !tbaa !188
  %56 = getelementptr inbounds nuw %struct._LossyDctEncoder, ptr %55, i32 0, i32 7
  %57 = load float, ptr %56, align 4, !tbaa !225
  %58 = load i32, ptr %19, align 4, !tbaa !8
  %59 = sext i32 %58 to i64
  %60 = getelementptr inbounds [64 x i32], ptr %15, i64 0, i64 %59
  %61 = load i32, ptr %60, align 4, !tbaa !8
  %62 = sitofp i32 %61 to float
  %63 = fmul float %57, %62
  %64 = load i32, ptr %16, align 4, !tbaa !8
  %65 = sitofp i32 %64 to float
  %66 = fdiv float %63, %65
  %67 = load ptr, ptr %8, align 8, !tbaa !188
  %68 = getelementptr inbounds nuw %struct._LossyDctEncoder, ptr %67, i32 0, i32 10
  %69 = load i32, ptr %19, align 4, !tbaa !8
  %70 = sext i32 %69 to i64
  %71 = getelementptr inbounds [64 x float], ptr %68, i64 0, i64 %70
  store float %66, ptr %71, align 4, !tbaa !152
  %72 = load ptr, ptr %8, align 8, !tbaa !188
  %73 = getelementptr inbounds nuw %struct._LossyDctEncoder, ptr %72, i32 0, i32 10
  %74 = load i32, ptr %19, align 4, !tbaa !8
  %75 = sext i32 %74 to i64
  %76 = getelementptr inbounds [64 x float], ptr %73, i64 0, i64 %75
  %77 = load float, ptr %76, align 4, !tbaa !152
  %78 = call zeroext i16 @float_to_half(float noundef %77)
  %79 = load ptr, ptr %8, align 8, !tbaa !188
  %80 = getelementptr inbounds nuw %struct._LossyDctEncoder, ptr %79, i32 0, i32 11
  %81 = load i32, ptr %19, align 4, !tbaa !8
  %82 = sext i32 %81 to i64
  %83 = getelementptr inbounds [64 x i16], ptr %80, i64 0, i64 %82
  store i16 %78, ptr %83, align 2, !tbaa !153
  %84 = load ptr, ptr %8, align 8, !tbaa !188
  %85 = getelementptr inbounds nuw %struct._LossyDctEncoder, ptr %84, i32 0, i32 7
  %86 = load float, ptr %85, align 4, !tbaa !225
  %87 = load i32, ptr %19, align 4, !tbaa !8
  %88 = sext i32 %87 to i64
  %89 = getelementptr inbounds [64 x i32], ptr %17, i64 0, i64 %88
  %90 = load i32, ptr %89, align 4, !tbaa !8
  %91 = sitofp i32 %90 to float
  %92 = fmul float %86, %91
  %93 = load i32, ptr %18, align 4, !tbaa !8
  %94 = sitofp i32 %93 to float
  %95 = fdiv float %92, %94
  %96 = load ptr, ptr %8, align 8, !tbaa !188
  %97 = getelementptr inbounds nuw %struct._LossyDctEncoder, ptr %96, i32 0, i32 12
  %98 = load i32, ptr %19, align 4, !tbaa !8
  %99 = sext i32 %98 to i64
  %100 = getelementptr inbounds [64 x float], ptr %97, i64 0, i64 %99
  store float %95, ptr %100, align 4, !tbaa !152
  %101 = load ptr, ptr %8, align 8, !tbaa !188
  %102 = getelementptr inbounds nuw %struct._LossyDctEncoder, ptr %101, i32 0, i32 12
  %103 = load i32, ptr %19, align 4, !tbaa !8
  %104 = sext i32 %103 to i64
  %105 = getelementptr inbounds [64 x float], ptr %102, i64 0, i64 %104
  %106 = load float, ptr %105, align 4, !tbaa !152
  %107 = call zeroext i16 @float_to_half(float noundef %106)
  %108 = load ptr, ptr %8, align 8, !tbaa !188
  %109 = getelementptr inbounds nuw %struct._LossyDctEncoder, ptr %108, i32 0, i32 13
  %110 = load i32, ptr %19, align 4, !tbaa !8
  %111 = sext i32 %110 to i64
  %112 = getelementptr inbounds [64 x i16], ptr %109, i64 0, i64 %111
  store i16 %107, ptr %112, align 2, !tbaa !153
  br label %113

113:                                              ; preds = %54
  %114 = load i32, ptr %19, align 4, !tbaa !8
  %115 = add nsw i32 %114, 1
  store i32 %115, ptr %19, align 4, !tbaa !8
  br label %50, !llvm.loop !226

116:                                              ; preds = %53
  %117 = load ptr, ptr %8, align 8, !tbaa !188
  %118 = getelementptr inbounds nuw %struct._LossyDctEncoder, ptr %117, i32 0, i32 3
  %119 = getelementptr inbounds [3 x ptr], ptr %118, i64 0, i64 0
  store ptr null, ptr %119, align 8, !tbaa !105
  %120 = load ptr, ptr %8, align 8, !tbaa !188
  %121 = getelementptr inbounds nuw %struct._LossyDctEncoder, ptr %120, i32 0, i32 3
  %122 = getelementptr inbounds [3 x ptr], ptr %121, i64 0, i64 1
  store ptr null, ptr %122, align 8, !tbaa !105
  %123 = load ptr, ptr %8, align 8, !tbaa !188
  %124 = getelementptr inbounds nuw %struct._LossyDctEncoder, ptr %123, i32 0, i32 3
  %125 = getelementptr inbounds [3 x ptr], ptr %124, i64 0, i64 2
  store ptr null, ptr %125, align 8, !tbaa !105
  %126 = load ptr, ptr %8, align 8, !tbaa !188
  %127 = getelementptr inbounds nuw %struct._LossyDctEncoder, ptr %126, i32 0, i32 4
  store i32 0, ptr %127, align 8, !tbaa !190
  call void @llvm.lifetime.end.p0(i64 4, ptr %18) #14
  call void @llvm.lifetime.end.p0(i64 256, ptr %17) #14
  call void @llvm.lifetime.end.p0(i64 4, ptr %16) #14
  call void @llvm.lifetime.end.p0(i64 256, ptr %15) #14
  ret i32 0
}