; Function Attrs: nofree norecurse nosync nounwind memory(argmem: write) uwtable
define internal fastcc void @LossyDctEncoder_base_construct(ptr noundef nonnull writeonly captures(none) initializes((0, 24), (52, 80)) %0, float noundef %1, ptr noundef %2, ptr noundef %3, ptr noundef %4, i32 noundef %5, i32 noundef %6) unnamed_addr #15 {
  %8 = getelementptr inbounds nuw i8, ptr %0, i64 60
  store float %1, ptr %8, align 4, !tbaa !241
  %9 = getelementptr inbounds nuw i8, ptr %0, i64 52
  store i32 %5, ptr %9, align 4, !tbaa !204
  %10 = getelementptr inbounds nuw i8, ptr %0, i64 56
  store i32 %6, ptr %10, align 8, !tbaa !205
  store ptr %4, ptr %0, align 8, !tbaa !238
  %11 = getelementptr inbounds nuw i8, ptr %0, i64 8
  %12 = getelementptr inbounds nuw i8, ptr %0, i64 64
  tail call void @llvm.memset.p0.i64(ptr noundef nonnull align 8 dereferenceable(16) %11, i8 0, i64 16, i1 false)
  store ptr %2, ptr %12, align 8, !tbaa !206
  %13 = getelementptr inbounds nuw i8, ptr %0, i64 72
  store ptr %3, ptr %13, align 8, !tbaa !207
  %14 = fcmp olt float %1, 0.000000e+00
  br i1 %14, label %15, label %16

15:                                               ; preds = %7
  store float 0.000000e+00, ptr %8, align 4, !tbaa !241
  br label %16

16:                                               ; preds = %15, %7
  %17 = phi float [ 0.000000e+00, %15 ], [ %1, %7 ]
  %18 = getelementptr inbounds nuw i8, ptr %0, i64 80
  %19 = getelementptr inbounds nuw i8, ptr %0, i64 336
  %20 = getelementptr inbounds nuw i8, ptr %0, i64 464
  %21 = getelementptr inbounds nuw i8, ptr %0, i64 720
  br label %24

22:                                               ; preds = %float_to_half.exit42
  %23 = getelementptr inbounds nuw i8, ptr %0, i64 24
  tail call void @llvm.memset.p0.i64(ptr noundef nonnull align 8 dereferenceable(28) %23, i8 0, i64 28, i1 false)
  ret void

24:                                               ; preds = %16, %float_to_half.exit42
  %indvars.iv = phi i64 [ 0, %16 ], [ %indvars.iv.next, %float_to_half.exit42 ]
  %25 = getelementptr inbounds nuw [64 x i32], ptr @__const.LossyDctEncoder_base_construct.jpegQuantTableY, i64 0, i64 %indvars.iv
  %26 = load i32, ptr %25, align 4, !tbaa !49
  %27 = sitofp i32 %26 to float
  %28 = fmul float %17, %27
  %29 = fdiv float %28, 1.000000e+01
  %30 = getelementptr inbounds nuw [64 x float], ptr %18, i64 0, i64 %indvars.iv
  store float %29, ptr %30, align 4, !tbaa !174
  %31 = bitcast float %29 to i32
  %32 = tail call float @llvm.fabs.f32(float %29)
  %33 = bitcast float %32 to i32
  %34 = lshr i32 %31, 16
  %35 = trunc nuw i32 %34 to i16
  %36 = and i16 %35, -32768
  %37 = icmp samesign ugt i32 %33, 947912703
  br i1 %37, label %38, label %64

38:                                               ; preds = %24
  %39 = icmp samesign ugt i32 %33, 2139095039
  br i1 %39, label %40, label %51, !prof !175

40:                                               ; preds = %38
  %41 = or disjoint i16 %36, 31744
  %42 = icmp eq i32 %33, 2139095040
  br i1 %42, label %float_to_half.exit, label %43

43:                                               ; preds = %40
  %44 = lshr i32 %33, 13
  %45 = and i32 %44, 1023
  %46 = icmp eq i32 %45, 0
  %47 = zext i1 %46 to i16
  %48 = trunc nuw nsw i32 %45 to i16
  %49 = or i16 %48, %47
  %50 = or disjoint i16 %49, %41
  br label %float_to_half.exit

51:                                               ; preds = %38
  %52 = icmp samesign ugt i32 %33, 1199566847
  br i1 %52, label %53, label %55, !prof !175

53:                                               ; preds = %51
  %54 = or disjoint i16 %36, 31744
  br label %float_to_half.exit

55:                                               ; preds = %51
  %56 = add nuw nsw i32 %33, 134221823
  %57 = lshr i32 %33, 13
  %58 = and i32 %57, 1
  %59 = add nuw nsw i32 %56, %58
  %60 = lshr i32 %59, 13
  %61 = and i32 %34, 32768
  %62 = or i32 %60, %61
  %63 = trunc i32 %62 to i16
  br label %float_to_half.exit

64:                                               ; preds = %24
  %65 = icmp samesign ult i32 %33, 855638017
  br i1 %65, label %float_to_half.exit, label %66

66:                                               ; preds = %64
  %67 = lshr i32 %33, 23
  %68 = sub nuw nsw i32 126, %67
  %69 = and i32 %33, 8388607
  %70 = or disjoint i32 %69, 8388608
  %71 = add nsw i32 %67, -94
  %72 = shl i32 %70, %71
  %73 = lshr i32 %70, %68
  %74 = and i32 %34, 32768
  %75 = or i32 %73, %74
  %76 = trunc nuw i32 %75 to i16
  %77 = icmp ugt i32 %72, -2147483648
  br i1 %77, label %81, label %78

78:                                               ; preds = %66
  %79 = icmp ne i32 %72, -2147483648
  %80 = and i32 %73, 1
  %.not.i.i = icmp eq i32 %80, 0
  %or.cond.i.i = select i1 %79, i1 true, i1 %.not.i.i
  br i1 %or.cond.i.i, label %float_to_half.exit, label %81

81:                                               ; preds = %78, %66
  %82 = add nuw i16 %76, 1
  br label %float_to_half.exit

float_to_half.exit:                               ; preds = %40, %43, %53, %55, %64, %78, %81
  %.0.i.i = phi i16 [ %50, %43 ], [ %54, %53 ], [ %63, %55 ], [ %41, %40 ], [ %36, %64 ], [ %82, %81 ], [ %76, %78 ]
  %83 = getelementptr inbounds nuw [64 x i16], ptr %19, i64 0, i64 %indvars.iv
  store i16 %.0.i.i, ptr %83, align 2, !tbaa !90
  %84 = getelementptr inbounds nuw [64 x i32], ptr @__const.LossyDctEncoder_base_construct.jpegQuantTableCbCr, i64 0, i64 %indvars.iv
  %85 = load i32, ptr %84, align 4, !tbaa !49
  %86 = sitofp i32 %85 to float
  %87 = fmul float %17, %86
  %88 = fdiv float %87, 1.700000e+01
  %89 = getelementptr inbounds nuw [64 x float], ptr %20, i64 0, i64 %indvars.iv
  store float %88, ptr %89, align 4, !tbaa !174
  %90 = bitcast float %88 to i32
  %91 = tail call float @llvm.fabs.f32(float %88)
  %92 = bitcast float %91 to i32
  %93 = lshr i32 %90, 16
  %94 = trunc nuw i32 %93 to i16
  %95 = and i16 %94, -32768
  %96 = icmp samesign ugt i32 %92, 947912703
  br i1 %96, label %97, label %123

97:                                               ; preds = %float_to_half.exit
  %98 = icmp samesign ugt i32 %92, 2139095039
  br i1 %98, label %99, label %110, !prof !175

99:                                               ; preds = %97
  %100 = or disjoint i16 %95, 31744
  %101 = icmp eq i32 %92, 2139095040
  br i1 %101, label %float_to_half.exit42, label %102

102:                                              ; preds = %99
  %103 = lshr i32 %92, 13
  %104 = and i32 %103, 1023
  %105 = icmp eq i32 %104, 0
  %106 = zext i1 %105 to i16
  %107 = trunc nuw nsw i32 %104 to i16
  %108 = or i16 %107, %106
  %109 = or disjoint i16 %108, %100
  br label %float_to_half.exit42

110:                                              ; preds = %97
  %111 = icmp samesign ugt i32 %92, 1199566847
  br i1 %111, label %112, label %114, !prof !175

112:                                              ; preds = %110
  %113 = or disjoint i16 %95, 31744
  br label %float_to_half.exit42

114:                                              ; preds = %110
  %115 = add nuw nsw i32 %92, 134221823
  %116 = lshr i32 %92, 13
  %117 = and i32 %116, 1
  %118 = add nuw nsw i32 %115, %117
  %119 = lshr i32 %118, 13
  %120 = and i32 %93, 32768
  %121 = or i32 %119, %120
  %122 = trunc i32 %121 to i16
  br label %float_to_half.exit42

123:                                              ; preds = %float_to_half.exit
  %124 = icmp samesign ult i32 %92, 855638017
  br i1 %124, label %float_to_half.exit42, label %125

125:                                              ; preds = %123
  %126 = lshr i32 %92, 23
  %127 = sub nuw nsw i32 126, %126
  %128 = and i32 %92, 8388607
  %129 = or disjoint i32 %128, 8388608
  %130 = add nsw i32 %126, -94
  %131 = shl i32 %129, %130
  %132 = lshr i32 %129, %127
  %133 = and i32 %93, 32768
  %134 = or i32 %132, %133
  %135 = trunc nuw i32 %134 to i16
  %136 = icmp ugt i32 %131, -2147483648
  br i1 %136, label %140, label %137

137:                                              ; preds = %125
  %138 = icmp ne i32 %131, -2147483648
  %139 = and i32 %132, 1
  %.not.i.i39 = icmp eq i32 %139, 0
  %or.cond.i.i40 = select i1 %138, i1 true, i1 %.not.i.i39
  br i1 %or.cond.i.i40, label %float_to_half.exit42, label %140

140:                                              ; preds = %137, %125
  %141 = add nuw i16 %135, 1
  br label %float_to_half.exit42

float_to_half.exit42:                             ; preds = %99, %102, %112, %114, %123, %137, %140
  %.0.i.i41 = phi i16 [ %109, %102 ], [ %113, %112 ], [ %122, %114 ], [ %100, %99 ], [ %95, %123 ], [ %141, %140 ], [ %135, %137 ]
  %142 = getelementptr inbounds nuw [64 x i16], ptr %21, i64 0, i64 %indvars.iv
  store i16 %.0.i.i41, ptr %142, align 2, !tbaa !90
  %indvars.iv.next = add nuw nsw i64 %indvars.iv, 1
  %exitcond.not = icmp eq i64 %indvars.iv.next, 64
  br i1 %exitcond.not, label %22, label %24, !llvm.loop !242
}